; Function Attrs: null_pointer_is_valid sspstrong uwtable
define internal fastcc ptr @get_frame_data(ptr noundef nonnull readonly captures(none) %0, i32 noundef %1) unnamed_addr #0 {
  %3 = load ptr, ptr %0, align 8
  %4 = tail call ptr @wmem_tree_lookup32(ptr noundef %3, i32 noundef %1)
  %5 = icmp eq ptr %4, null
  br i1 %5, label %6, label %10

6:                                                ; preds = %2
  %7 = tail call ptr @wmem_file_scope()
  %8 = tail call noalias dereferenceable_or_null(40) ptr @wmem_alloc0(ptr noundef %7, i64 noundef 40) #14
  %9 = load ptr, ptr %0, align 8
  tail call void @wmem_tree_insert32(ptr noundef %9, i32 noundef %1, ptr noundef %8)
  br label %10

10:                                               ; preds = %6, %2
  %.0 = phi ptr [ %8, %6 ], [ %4, %2 ]
  ret ptr %.0
}